target datalayout = "e-m:e-p270:32:32-p271:32:32-p272:64:64-i64:64-i128:128-f80:128-n8:16:32:64-S128"
target triple = "x86_64-unknown-linux-gnu"

%"class.std::basic_string_view" = type { i64, ptr }

; Function Attrs: mustprogress nounwind uwtable
define linkonce_odr hidden noundef ptr @_ZNKSt17basic_string_viewIcSt11char_traitsIcEE3endEv(ptr noundef nonnull align 8 dereferenceable(16) %this) #5 comdat align 2 {
entry:
  %this.addr = alloca ptr, align 8
  store ptr %this, ptr %this.addr, align 8
  %this1 = load ptr, ptr %this.addr, align 8
  %_M_str = getelementptr inbounds %"class.std::basic_string_view", ptr %this1, i32 0, i32 1
  %0 = load ptr, ptr %_M_str, align 8
  %_M_len = getelementptr inbounds %"class.std::basic_string_view", ptr %this1, i32 0, i32 0
  %1 = load i64, ptr %_M_len, align 8
  %add.ptr = getelementptr inbounds i8, ptr %0, i64 %1
  ret ptr %add.ptr
}

; Function Attrs: mustprogress nounwind uwtable
define linkonce_odr hidden noundef ptr @_ZNKSt17basic_string_viewIcSt11char_traitsIcEE5beginEv(ptr noundef nonnull align 8 dereferenceable(16) %this) #5 comdat align 2 {
entry:
  %this.addr = alloca ptr, align 8
  store ptr %this, ptr %this.addr, align 8
  %this1 = load ptr, ptr %this.addr, align 8
  %_M_str = getelementptr inbounds %"class.std::basic_string_view", ptr %this1, i32 0, i32 1
  %0 = load ptr, ptr %_M_str, align 8
  ret ptr %0
}

; Function Attrs: mustprogress uwtable
define noundef zeroext i1 @_ZN6google8protobuf4util13FieldMaskUtil20CamelCaseToSnakeCaseESt17basic_string_viewIcSt11char_traitsIcEEPNSt7__cxx1112basic_stringIcS5_SaIcEEE(i64 %input.coerce0, ptr %input.coerce1, ptr noundef %output) #4 align 2 {
entry:
  %retval = alloca i1, align 1
  %input = alloca %"class.std::basic_string_view", align 8
  %output.addr = alloca ptr, align 8
  %__range2 = alloca ptr, align 8
  %__begin2 = alloca ptr, align 8
  %__end2 = alloca ptr, align 8
  %c = alloca i8, align 1
  %0 = getelementptr inbounds { i64, ptr }, ptr %input, i32 0, i32 0
  store i64 %input.coerce0, ptr %0, align 8
  %1 = getelementptr inbounds { i64, ptr }, ptr %input, i32 0, i32 1
  store ptr %input.coerce1, ptr %1, align 8
  store ptr %output, ptr %output.addr, align 8
  %2 = load ptr, ptr %output.addr, align 8
  call void @_ZNSt7__cxx1112basic_stringIcSt11char_traitsIcESaIcEE5clearEv(ptr noundef nonnull align 8 dereferenceable(32) %2) #3
  store ptr %input, ptr %__range2, align 8
  %3 = load ptr, ptr %__range2, align 8
  %call = call noundef ptr @_ZNKSt17basic_string_viewIcSt11char_traitsIcEE5beginEv(ptr noundef nonnull align 8 dereferenceable(16) %3) #3
  store ptr %call, ptr %__begin2, align 8
  %4 = load ptr, ptr %__range2, align 8
  %call1 = call noundef ptr @_ZNKSt17basic_string_viewIcSt11char_traitsIcEE3endEv(ptr noundef nonnull align 8 dereferenceable(16) %4) #3
  store ptr %call1, ptr %__end2, align 8
  br label %for.cond

for.cond:                                         ; preds = %for.inc, %entry
  %5 = load ptr, ptr %__begin2, align 8
  %6 = load ptr, ptr %__end2, align 8
  %cmp = icmp ne ptr %5, %6
  br i1 %cmp, label %for.body, label %for.end

for.body:                                         ; preds = %for.cond
  %7 = load ptr, ptr %__begin2, align 8
  %8 = load i8, ptr %7, align 1
  store i8 %8, ptr %c, align 1
  %9 = load i8, ptr %c, align 1
  %conv = sext i8 %9 to i32
  %cmp2 = icmp eq i32 %conv, 95
  br i1 %cmp2, label %if.then, label %if.end

if.then:                                          ; preds = %for.body
  store i1 false, ptr %retval, align 1
  br label %return

if.end:                                           ; preds = %for.body
  %10 = load i8, ptr %c, align 1
  %conv3 = sext i8 %10 to i32
  %cmp4 = icmp sge i32 %conv3, 65
  br i1 %cmp4, label %land.lhs.true, label %if.else

land.lhs.true:                                    ; preds = %if.end
  %11 = load i8, ptr %c, align 1
  %conv5 = sext i8 %11 to i32
  %cmp6 = icmp sle i32 %conv5, 90
  br i1 %cmp6, label %if.then7, label %if.else

if.then7:                                         ; preds = %land.lhs.true
  %12 = load ptr, ptr %output.addr, align 8
  call void @_ZNSt7__cxx1112basic_stringIcSt11char_traitsIcESaIcEE9push_backEc(ptr noundef nonnull align 8 dereferenceable(32) %12, i8 noundef signext 95)
  %13 = load ptr, ptr %output.addr, align 8
  %14 = load i8, ptr %c, align 1
  %conv8 = sext i8 %14 to i32
  %add = add nsw i32 %conv8, 97
  %sub = sub nsw i32 %add, 65
  %conv9 = trunc i32 %sub to i8
  call void @_ZNSt7__cxx1112basic_stringIcSt11char_traitsIcESaIcEE9push_backEc(ptr noundef nonnull align 8 dereferenceable(32) %13, i8 noundef signext %conv9)
  br label %if.end10

if.else:                                          ; preds = %land.lhs.true, %if.end
  %15 = load ptr, ptr %output.addr, align 8
  %16 = load i8, ptr %c, align 1
  call void @_ZNSt7__cxx1112basic_stringIcSt11char_traitsIcESaIcEE9push_backEc(ptr noundef nonnull align 8 dereferenceable(32) %15, i8 noundef signext %16)
  br label %if.end10

if.end10:                                         ; preds = %if.else, %if.then7
  br label %for.inc

for.inc:                                          ; preds = %if.end10
  %17 = load ptr, ptr %__begin2, align 8
  %incdec.ptr = getelementptr inbounds i8, ptr %17, i32 1
  store ptr %incdec.ptr, ptr %__begin2, align 8
  br label %for.cond

for.end:                                          ; preds = %for.cond
  store i1 true, ptr %retval, align 1
  br label %return

return:                                           ; preds = %for.end, %if.then
  %18 = load i1, ptr %retval, align 1
  ret i1 %18
}