; Function Attrs: mustprogress uwtable
define noundef zeroext i1 @_ZN6google8protobuf4util13FieldMaskUtil20CamelCaseToSnakeCaseESt17basic_string_viewIcSt11char_traitsIcEEPNSt7__cxx1112basic_stringIcS5_SaIcEEE(i64 %input.coerce0, ptr readonly %input.coerce1, ptr noundef nonnull %output) local_unnamed_addr #3 align 2 {
entry:
  tail call void @_ZNSt7__cxx1112basic_stringIcSt11char_traitsIcESaIcEE5clearEv(ptr noundef nonnull align 8 dereferenceable(32) %output) #21
  %add.ptr.i = getelementptr inbounds i8, ptr %input.coerce1, i64 %input.coerce0
  %cmp.not13 = icmp eq i64 %input.coerce0, 0
  br i1 %cmp.not13, label %return, label %for.body

for.body:                                         ; preds = %entry, %for.inc
  %__begin2.014 = phi ptr [ %incdec.ptr, %for.inc ], [ %input.coerce1, %entry ]
  %0 = load i8, ptr %__begin2.014, align 1
  %cmp2.not.not = icmp ne i8 %0, 95
  br i1 %cmp2.not.not, label %if.end, label %return

if.end:                                           ; preds = %for.body
  %1 = add i8 %0, -65
  %or.cond = icmp ult i8 %1, 26
  br i1 %or.cond, label %if.then7, label %for.inc

if.then7:                                         ; preds = %if.end
  tail call void @_ZNSt7__cxx1112basic_stringIcSt11char_traitsIcESaIcEE9push_backEc(ptr noundef nonnull align 8 dereferenceable(32) %output, i8 noundef signext 95)
  %2 = or disjoint i8 %0, 32
  br label %for.inc

for.inc:                                          ; preds = %if.end, %if.then7
  %.sink = phi i8 [ %2, %if.then7 ], [ %0, %if.end ]
  tail call void @_ZNSt7__cxx1112basic_stringIcSt11char_traitsIcESaIcEE9push_backEc(ptr noundef nonnull align 8 dereferenceable(32) %output, i8 noundef signext %.sink)
  %incdec.ptr = getelementptr inbounds nuw i8, ptr %__begin2.014, i64 1
  %cmp.not = icmp eq ptr %incdec.ptr, %add.ptr.i
  br i1 %cmp.not, label %return, label %for.body

return:                                           ; preds = %for.body, %for.inc, %entry
  %cmp.not.lcssa = phi i1 [ true, %entry ], [ %cmp2.not.not, %for.inc ], [ %cmp2.not.not, %for.body ]
  ret i1 %cmp.not.lcssa
}